; Function Attrs: nounwind uwtable
define dso_local i64 @rdbSaveLzfBlob(ptr noundef %0, ptr noundef %1, i64 noundef %2, i64 noundef %3) local_unnamed_addr #0 {
  %5 = alloca i8, align 1
  call void @llvm.lifetime.start.p0(i64 1, ptr nonnull %5) #23
  store i8 -61, ptr %5, align 1, !tbaa !59
  %.not.i = icmp eq ptr %0, null
  br i1 %.not.i, label %rdbWriteRaw.exit, label %6

6:                                                ; preds = %4
  %7 = getelementptr inbounds nuw i8, ptr %0, i64 48
  %8 = load i64, ptr %7, align 8, !tbaa !53
  %9 = and i64 %8, 6
  %.not.i.i = icmp eq i64 %9, 0
  br i1 %.not.i.i, label %.preheader.i.i, label %rdbWriteRaw.exit.thread

.preheader.i.i:                                   ; preds = %6
  %10 = getelementptr inbounds nuw i8, ptr %0, i64 64
  %11 = getelementptr inbounds nuw i8, ptr %0, i64 32
  %12 = getelementptr inbounds nuw i8, ptr %0, i64 8
  %13 = getelementptr inbounds nuw i8, ptr %0, i64 56
  br label %14

14:                                               ; preds = %26, %.preheader.i.i
  %.02539.i.i = phi i64 [ 1, %.preheader.i.i ], [ %28, %26 ]
  %.02738.i.i = phi ptr [ %5, %.preheader.i.i ], [ %27, %26 ]
  %15 = load i64, ptr %10, align 8, !tbaa !55
  %.not32.not.i.i = icmp eq i64 %15, 0
  %16 = call i64 @llvm.umin.i64(i64 %15, i64 %.02539.i.i)
  %17 = select i1 %.not32.not.i.i, i64 %.02539.i.i, i64 %16
  %18 = load ptr, ptr %11, align 8, !tbaa !56
  %.not33.i.i = icmp eq ptr %18, null
  br i1 %.not33.i.i, label %20, label %19

19:                                               ; preds = %14
  call void %18(ptr noundef nonnull %0, ptr noundef %.02738.i.i, i64 noundef %17) #23
  br label %20

20:                                               ; preds = %19, %14
  %21 = load ptr, ptr %12, align 8, !tbaa !57
  %22 = call i64 %21(ptr noundef nonnull %0, ptr noundef %.02738.i.i, i64 noundef %17) #23
  %23 = icmp eq i64 %22, 0
  br i1 %23, label %.thread.i.i, label %26

.thread.i.i:                                      ; preds = %20
  %24 = load i64, ptr %7, align 8, !tbaa !53
  %25 = or i64 %24, 2
  store i64 %25, ptr %7, align 8, !tbaa !53
  br label %rdbWriteRaw.exit.thread

26:                                               ; preds = %20
  %27 = getelementptr inbounds nuw i8, ptr %.02738.i.i, i64 %17
  %28 = sub i64 %.02539.i.i, %17
  %29 = load i64, ptr %13, align 8, !tbaa !58
  %30 = add i64 %29, %17
  store i64 %30, ptr %13, align 8, !tbaa !58
  %.not31.i.i = icmp eq i64 %28, 0
  br i1 %.not31.i.i, label %rdbWriteRaw.exit, label %14

rdbWriteRaw.exit:                                 ; preds = %26, %4
  %31 = call i32 @rdbSaveLen(ptr noundef %0, i64 noundef %2)
  %32 = icmp eq i32 %31, -1
  br i1 %32, label %rdbWriteRaw.exit.thread, label %33

33:                                               ; preds = %rdbWriteRaw.exit
  %34 = call i32 @rdbSaveLen(ptr noundef %0, i64 noundef %3)
  %35 = icmp eq i32 %34, -1
  br i1 %35, label %rdbWriteRaw.exit.thread, label %36

36:                                               ; preds = %33
  br i1 %.not.i, label %rdbWriteRaw.exit31, label %37

37:                                               ; preds = %36
  %38 = getelementptr inbounds nuw i8, ptr %0, i64 48
  %39 = load i64, ptr %38, align 8, !tbaa !53
  %40 = and i64 %39, 6
  %.not.i.i22 = icmp eq i64 %40, 0
  br i1 %.not.i.i22, label %.preheader.i.i24, label %rdbWriteRaw.exit.thread

.preheader.i.i24:                                 ; preds = %37
  %.not3137.i.i = icmp eq i64 %2, 0
  br i1 %.not3137.i.i, label %rdbWriteRaw.exit31.thread34, label %.lr.ph.i.i

.lr.ph.i.i:                                       ; preds = %.preheader.i.i24
  %41 = getelementptr inbounds nuw i8, ptr %0, i64 64
  %42 = getelementptr inbounds nuw i8, ptr %0, i64 32
  %43 = getelementptr inbounds nuw i8, ptr %0, i64 8
  %44 = getelementptr inbounds nuw i8, ptr %0, i64 56
  br label %45

45:                                               ; preds = %57, %.lr.ph.i.i
  %.02539.i.i25 = phi i64 [ %2, %.lr.ph.i.i ], [ %59, %57 ]
  %.02738.i.i26 = phi ptr [ %1, %.lr.ph.i.i ], [ %58, %57 ]
  %46 = load i64, ptr %41, align 8, !tbaa !55
  %.not32.not.i.i27 = icmp eq i64 %46, 0
  %47 = call i64 @llvm.umin.i64(i64 %46, i64 %.02539.i.i25)
  %48 = select i1 %.not32.not.i.i27, i64 %.02539.i.i25, i64 %47
  %49 = load ptr, ptr %42, align 8, !tbaa !56
  %.not33.i.i28 = icmp eq ptr %49, null
  br i1 %.not33.i.i28, label %51, label %50

50:                                               ; preds = %45
  call void %49(ptr noundef nonnull %0, ptr noundef %.02738.i.i26, i64 noundef %48) #23
  br label %51

51:                                               ; preds = %50, %45
  %52 = load ptr, ptr %43, align 8, !tbaa !57
  %53 = call i64 %52(ptr noundef nonnull %0, ptr noundef %.02738.i.i26, i64 noundef %48) #23
  %54 = icmp eq i64 %53, 0
  br i1 %54, label %.thread.i.i30, label %57

.thread.i.i30:                                    ; preds = %51
  %55 = load i64, ptr %38, align 8, !tbaa !53
  %56 = or i64 %55, 2
  store i64 %56, ptr %38, align 8, !tbaa !53
  br label %rdbWriteRaw.exit.thread

57:                                               ; preds = %51
  %58 = getelementptr inbounds nuw i8, ptr %.02738.i.i26, i64 %48
  %59 = sub i64 %.02539.i.i25, %48
  %60 = load i64, ptr %44, align 8, !tbaa !58
  %61 = add i64 %60, %48
  store i64 %61, ptr %44, align 8, !tbaa !58
  %.not31.i.i29 = icmp eq i64 %59, 0
  br i1 %.not31.i.i29, label %rdbWriteRaw.exit31, label %45

rdbWriteRaw.exit31:                               ; preds = %57, %36
  %62 = icmp eq i64 %2, -1
  br i1 %62, label %rdbWriteRaw.exit.thread, label %rdbWriteRaw.exit31.thread34

rdbWriteRaw.exit31.thread34:                      ; preds = %.preheader.i.i24, %rdbWriteRaw.exit31
  %narrow = add nsw i32 %31, 1
  %63 = zext nneg i32 %narrow to i64
  %64 = sext i32 %34 to i64
  %65 = add i64 %2, %63
  %66 = add i64 %65, %64
  br label %rdbWriteRaw.exit.thread

rdbWriteRaw.exit.thread:                          ; preds = %.thread.i.i30, %37, %.thread.i.i, %6, %rdbWriteRaw.exit, %33, %rdbWriteRaw.exit31, %rdbWriteRaw.exit31.thread34
  %.0 = phi i64 [ %66, %rdbWriteRaw.exit31.thread34 ], [ -1, %rdbWriteRaw.exit31 ], [ -1, %33 ], [ -1, %rdbWriteRaw.exit ], [ -1, %6 ], [ -1, %.thread.i.i ], [ -1, %37 ], [ -1, %.thread.i.i30 ]
  call void @llvm.lifetime.end.p0(i64 1, ptr nonnull %5) #23
  ret i64 %.0
}